target datalayout = "e-m:e-p270:32:32-p271:32:32-p272:64:64-i64:64-i128:128-f80:128-n8:16:32:64-S128"
target triple = "x86_64-pc-linux-gnu"

%struct.strbuf = type { i64, i64, ptr }
%struct.used_atom = type { i32, ptr, i32, i32, %union.anon }
%union.anon = type { %struct.anon.1 }
%struct.anon.1 = type { i32, %struct.process_trailer_options, ptr, i32 }
%struct.process_trailer_options = type { i32, i32, i32, i32, i32, i32, i32, i32, ptr, ptr, ptr, ptr }
%struct.ref_trailer_buf = type { %struct.string_list, %struct.strbuf, %struct.strbuf }
%struct.string_list = type { ptr, i64, i64, i8, ptr }

@.str.24 = private unnamed_addr constant [1 x i8] zeroinitializer, align 1
@git_gettext_enabled = external global i32, align 4
@.str.107 = private unnamed_addr constant [4 x i8] c"%s)\00", align 1
@.str.108 = private unnamed_addr constant [34 x i8] c"expected %%(trailers:key=<value>)\00", align 1
@.str.109 = private unnamed_addr constant [34 x i8] c"unknown %%(trailers) argument: %s\00", align 1

; Function Attrs: inlinehint nounwind uwtable
define internal ptr @_(ptr noundef %0) #1 {
  %2 = alloca ptr, align 8
  %3 = alloca ptr, align 8
  store ptr %0, ptr %3, align 8, !tbaa !13
  %4 = load ptr, ptr %3, align 8, !tbaa !13
  %5 = load i8, ptr %4, align 1, !tbaa !14
  %6 = icmp ne i8 %5, 0
  br i1 %6, label %8, label %7

7:                                                ; preds = %1
  store ptr @.str.24, ptr %2, align 8
  br label %16

8:                                                ; preds = %1
  %9 = load i32, ptr @git_gettext_enabled, align 4, !tbaa !15
  %10 = icmp ne i32 %9, 0
  br i1 %10, label %13, label %11

11:                                               ; preds = %8
  %12 = load ptr, ptr %3, align 8, !tbaa !13
  store ptr %12, ptr %2, align 8
  br label %16

13:                                               ; preds = %8
  %14 = load ptr, ptr %3, align 8, !tbaa !13
  %15 = call ptr @dcgettext(ptr noundef null, ptr noundef %14, i32 noundef 5) #11
  store ptr %15, ptr %2, align 8
  br label %16

16:                                               ; preds = %13, %11, %7
  %17 = load ptr, ptr %2, align 8
  ret ptr %17
}

; Function Attrs: nounwind uwtable
define internal i32 @trailers_atom_parser(ptr noundef %0, ptr noundef %1, ptr noundef %2, ptr noundef %3) #0 {
  %5 = alloca i32, align 4
  %6 = alloca ptr, align 8
  %7 = alloca ptr, align 8
  %8 = alloca ptr, align 8
  %9 = alloca ptr, align 8
  %10 = alloca ptr, align 8
  %11 = alloca ptr, align 8
  %12 = alloca ptr, align 8
  %13 = alloca ptr, align 8
  %14 = alloca i32, align 4
  store ptr %0, ptr %6, align 8, !tbaa !17
  store ptr %1, ptr %7, align 8, !tbaa !26
  store ptr %2, ptr %8, align 8, !tbaa !13
  store ptr %3, ptr %9, align 8, !tbaa !36
  %15 = load ptr, ptr %7, align 8, !tbaa !26
  %16 = getelementptr inbounds nuw %struct.used_atom, ptr %15, i32 0, i32 4
  %17 = getelementptr inbounds nuw %struct.anon.1, ptr %16, i32 0, i32 1
  %18 = getelementptr inbounds nuw %struct.process_trailer_options, ptr %17, i32 0, i32 5
  store i32 1, ptr %18, align 4, !tbaa !14
  %19 = load ptr, ptr %8, align 8, !tbaa !13
  %20 = icmp ne ptr %19, null
  br i1 %20, label %21, label %64

21:                                               ; preds = %4
  call void @llvm.lifetime.start.p0(i64 8, ptr %10) #11
  %22 = load ptr, ptr %8, align 8, !tbaa !13
  %23 = call ptr (ptr, ...) @xstrfmt(ptr noundef @.str.107, ptr noundef %22)
  store ptr %23, ptr %10, align 8, !tbaa !13
  call void @llvm.lifetime.start.p0(i64 8, ptr %11) #11
  %24 = load ptr, ptr %10, align 8, !tbaa !13
  store ptr %24, ptr %11, align 8, !tbaa !13
  call void @llvm.lifetime.start.p0(i64 8, ptr %12) #11
  store ptr null, ptr %12, align 8, !tbaa !13
  call void @llvm.lifetime.start.p0(i64 8, ptr %13) #11
  %25 = call ptr @xmalloc(i64 noundef 88)
  store ptr %25, ptr %13, align 8, !tbaa !80
  %26 = load ptr, ptr %7, align 8, !tbaa !26
  %27 = getelementptr inbounds nuw %struct.used_atom, ptr %26, i32 0, i32 4
  %28 = getelementptr inbounds nuw %struct.anon.1, ptr %27, i32 0, i32 2
  store ptr %25, ptr %28, align 8, !tbaa !14
  %29 = load ptr, ptr %13, align 8, !tbaa !80
  %30 = getelementptr inbounds nuw %struct.ref_trailer_buf, ptr %29, i32 0, i32 0
  call void @string_list_init_dup(ptr noundef %30)
  %31 = load ptr, ptr %13, align 8, !tbaa !80
  %32 = getelementptr inbounds nuw %struct.ref_trailer_buf, ptr %31, i32 0, i32 1
  call void @strbuf_init(ptr noundef %32, i64 noundef 0)
  %33 = load ptr, ptr %13, align 8, !tbaa !80
  %34 = getelementptr inbounds nuw %struct.ref_trailer_buf, ptr %33, i32 0, i32 2
  call void @strbuf_init(ptr noundef %34, i64 noundef 0)
  %35 = load ptr, ptr %7, align 8, !tbaa !26
  %36 = getelementptr inbounds nuw %struct.used_atom, ptr %35, i32 0, i32 4
  %37 = getelementptr inbounds nuw %struct.anon.1, ptr %36, i32 0, i32 1
  %38 = load ptr, ptr %13, align 8, !tbaa !80
  %39 = getelementptr inbounds nuw %struct.ref_trailer_buf, ptr %38, i32 0, i32 0
  %40 = load ptr, ptr %13, align 8, !tbaa !80
  %41 = getelementptr inbounds nuw %struct.ref_trailer_buf, ptr %40, i32 0, i32 1
  %42 = load ptr, ptr %13, align 8, !tbaa !80
  %43 = getelementptr inbounds nuw %struct.ref_trailer_buf, ptr %42, i32 0, i32 2
  %44 = call i32 @format_set_trailers_options(ptr noundef %37, ptr noundef %39, ptr noundef %41, ptr noundef %43, ptr noundef %11, ptr noundef %12)
  %45 = icmp ne i32 %44, 0
  br i1 %45, label %46, label %59

46:                                               ; preds = %21
  %47 = load ptr, ptr %12, align 8, !tbaa !13
  %48 = icmp ne ptr %47, null
  br i1 %48, label %52, label %49

49:                                               ; preds = %46
  %50 = load ptr, ptr %9, align 8, !tbaa !36
  %51 = call ptr @_(ptr noundef @.str.108)
  call void (ptr, ptr, ...) @strbuf_addf(ptr noundef %50, ptr noundef %51)
  br label %56

52:                                               ; preds = %46
  %53 = load ptr, ptr %9, align 8, !tbaa !36
  %54 = call ptr @_(ptr noundef @.str.109)
  %55 = load ptr, ptr %12, align 8, !tbaa !13
  call void (ptr, ptr, ...) @strbuf_addf(ptr noundef %53, ptr noundef %54, ptr noundef %55)
  br label %56

56:                                               ; preds = %52, %49
  %57 = load ptr, ptr %12, align 8, !tbaa !13
  call void @free(ptr noundef %57) #11
  %58 = load ptr, ptr %10, align 8, !tbaa !13
  call void @free(ptr noundef %58) #11
  store i32 -1, ptr %5, align 4
  store i32 1, ptr %14, align 4
  br label %61

59:                                               ; preds = %21
  %60 = load ptr, ptr %10, align 8, !tbaa !13
  call void @free(ptr noundef %60) #11
  store i32 0, ptr %14, align 4
  br label %61

61:                                               ; preds = %59, %56
  call void @llvm.lifetime.end.p0(i64 8, ptr %13) #11
  call void @llvm.lifetime.end.p0(i64 8, ptr %12) #11
  call void @llvm.lifetime.end.p0(i64 8, ptr %11) #11
  call void @llvm.lifetime.end.p0(i64 8, ptr %10) #11
  %62 = load i32, ptr %14, align 4
  switch i32 %62, label %70 [
    i32 0, label %63
    i32 1, label %68
  ]

63:                                               ; preds = %61
  br label %64

64:                                               ; preds = %63, %4
  %65 = load ptr, ptr %7, align 8, !tbaa !26
  %66 = getelementptr inbounds nuw %struct.used_atom, ptr %65, i32 0, i32 4
  %67 = getelementptr inbounds nuw %struct.anon.1, ptr %66, i32 0, i32 0
  store i32 8, ptr %67, align 8, !tbaa !14
  store i32 0, ptr %5, align 4
  br label %68

68:                                               ; preds = %64, %61
  %69 = load i32, ptr %5, align 4
  ret i32 %69

70:                                               ; preds = %61
  unreachable
}