; Function Attrs: nounwind uwtable
define internal range(i32 -1, 1) i32 @trailers_atom_parser(ptr readnone captures(none) %0, ptr noundef initializes((52, 56)) %1, ptr noundef %2, ptr noundef %3) #0 {
  %5 = alloca ptr, align 8
  %6 = alloca ptr, align 8
  %7 = getelementptr inbounds nuw i8, ptr %1, i64 24
  %8 = getelementptr inbounds nuw i8, ptr %1, i64 52
  store i32 1, ptr %8, align 4, !tbaa !15
  %.not = icmp eq ptr %2, null
  br i1 %.not, label %29, label %9

9:                                                ; preds = %4
  %10 = getelementptr inbounds nuw i8, ptr %1, i64 32
  %11 = tail call ptr (ptr, ...) @xstrfmt(ptr noundef nonnull @.str.107, ptr noundef nonnull %2) #23
  call void @llvm.lifetime.start.p0(i64 8, ptr nonnull %5) #23
  store ptr %11, ptr %5, align 8, !tbaa !59
  call void @llvm.lifetime.start.p0(i64 8, ptr nonnull %6) #23
  store ptr null, ptr %6, align 8, !tbaa !59
  %12 = tail call ptr @xmalloc(i64 noundef 88) #23
  %13 = getelementptr inbounds nuw i8, ptr %1, i64 96
  store ptr %12, ptr %13, align 8, !tbaa !15
  tail call void @string_list_init_dup(ptr noundef %12) #23
  %14 = getelementptr inbounds nuw i8, ptr %12, i64 40
  tail call void @strbuf_init(ptr noundef nonnull %14, i64 noundef 0) #23
  %15 = getelementptr inbounds nuw i8, ptr %12, i64 64
  tail call void @strbuf_init(ptr noundef nonnull %15, i64 noundef 0) #23
  %16 = call i32 @format_set_trailers_options(ptr noundef nonnull %10, ptr noundef %12, ptr noundef nonnull %14, ptr noundef nonnull %15, ptr noundef nonnull %5, ptr noundef nonnull %6) #23
  %.not20.not = icmp eq i32 %16, 0
  br i1 %.not20.not, label %.thread, label %17

17:                                               ; preds = %9
  %18 = load ptr, ptr %6, align 8, !tbaa !59
  %.not21 = icmp eq ptr %18, null
  %19 = load i32, ptr @git_gettext_enabled, align 4, !tbaa !4
  %.not4.i = icmp eq i32 %19, 0
  br i1 %.not21, label %20, label %23

20:                                               ; preds = %17
  br i1 %.not4.i, label %_.exit, label %21

21:                                               ; preds = %20
  %22 = call ptr @dcgettext(ptr noundef null, ptr noundef nonnull @.str.108, i32 noundef 5) #23
  br label %_.exit

_.exit:                                           ; preds = %20, %21
  %.0.i = phi ptr [ %22, %21 ], [ @.str.108, %20 ]
  call void (ptr, ptr, ...) @strbuf_addf(ptr noundef %3, ptr noundef %.0.i) #23
  br label %27

23:                                               ; preds = %17
  br i1 %.not4.i, label %_.exit24, label %24

24:                                               ; preds = %23
  %25 = call ptr @dcgettext(ptr noundef null, ptr noundef nonnull @.str.109, i32 noundef 5) #23
  %.pre = load ptr, ptr %6, align 8, !tbaa !59
  br label %_.exit24

_.exit24:                                         ; preds = %23, %24
  %26 = phi ptr [ %.pre, %24 ], [ %18, %23 ]
  %.0.i23 = phi ptr [ %25, %24 ], [ @.str.109, %23 ]
  call void (ptr, ptr, ...) @strbuf_addf(ptr noundef %3, ptr noundef %.0.i23, ptr noundef %26) #23
  br label %27

.thread:                                          ; preds = %9
  call void @free(ptr noundef %11) #23
  call void @llvm.lifetime.end.p0(i64 8, ptr nonnull %6) #23
  call void @llvm.lifetime.end.p0(i64 8, ptr nonnull %5) #23
  br label %29

27:                                               ; preds = %_.exit, %_.exit24
  %28 = load ptr, ptr %6, align 8, !tbaa !59
  call void @free(ptr noundef %28) #23
  call void @free(ptr noundef %11) #23
  call void @llvm.lifetime.end.p0(i64 8, ptr nonnull %6) #23
  call void @llvm.lifetime.end.p0(i64 8, ptr nonnull %5) #23
  br label %30

29:                                               ; preds = %.thread, %4
  store i32 8, ptr %7, align 8, !tbaa !15
  br label %30

30:                                               ; preds = %27, %29
  %.1 = phi i32 [ -1, %27 ], [ 0, %29 ]
  ret i32 %.1
}